; Function Attrs: nounwind uwtable
define internal ptr @unicode_readchar(ptr readnone captures(none) %0, ptr noundef %1) #0 {
  %3 = alloca ptr, align 8
  %4 = alloca i64, align 8
  call void @llvm.lifetime.start.p0(i64 8, ptr nonnull %3) #4
  call void @llvm.lifetime.start.p0(i64 8, ptr nonnull %4) #4
  %5 = call i32 (ptr, ptr, ...) @PyArg_ParseTuple(ptr noundef %1, ptr noundef nonnull @.str.358, ptr noundef nonnull %3, ptr noundef nonnull %4) #4
  %.not = icmp eq i32 %5, 0
  br i1 %.not, label %19, label %6

6:                                                ; preds = %2
  %7 = load ptr, ptr %3, align 8, !tbaa !8
  %8 = call ptr @Py_GetConstantBorrowed(i32 noundef 0) #4
  %9 = icmp eq ptr %7, %8
  br i1 %9, label %10, label %._crit_edge

._crit_edge:                                      ; preds = %6
  %.pre = load ptr, ptr %3, align 8, !tbaa !8
  br label %11

10:                                               ; preds = %6
  store ptr null, ptr %3, align 8, !tbaa !8
  br label %11

11:                                               ; preds = %._crit_edge, %10
  %12 = phi ptr [ %.pre, %._crit_edge ], [ null, %10 ]
  %13 = load i64, ptr %4, align 8, !tbaa !10
  %14 = call i32 @PyUnicode_ReadChar(ptr noundef %12, i64 noundef %13) #4
  %15 = icmp eq i32 %14, -1
  br i1 %15, label %19, label %16

16:                                               ; preds = %11
  %17 = zext i32 %14 to i64
  %18 = call ptr @PyLong_FromUnsignedLong(i64 noundef %17) #4
  br label %19

19:                                               ; preds = %11, %2, %16
  %.0 = phi ptr [ %18, %16 ], [ null, %2 ], [ null, %11 ]
  call void @llvm.lifetime.end.p0(i64 8, ptr nonnull %4) #4
  call void @llvm.lifetime.end.p0(i64 8, ptr nonnull %3) #4
  ret ptr %.0
}